
direct_write.o:     file format elf64-x86-64


Disassembly of section .text:

0000000000000000 <main>:
   0:	55                   	push   %rbp
   1:	48 89 e5             	mov    %rsp,%rbp
   4:	48 83 ec 50          	sub    $0x50,%rsp
   8:	64 48 8b 04 25 28 00 	mov    %fs:0x28,%rax
   f:	00 00 
  11:	48 89 45 f8          	mov    %rax,-0x8(%rbp)
  15:	31 c0                	xor    %eax,%eax
  17:	48 b8 48 65 6c 6c 6f 	movabs $0x77202c6f6c6c6548,%rax
  1e:	2c 20 77 
  21:	48 89 45 e9          	mov    %rax,-0x17(%rbp)
  25:	c7 45 f1 6f 72 6c 64 	movl   $0x646c726f,-0xf(%rbp)
  2c:	66 c7 45 f5 21 0a    	movw   $0xa21,-0xb(%rbp)
  32:	c6 45 f7 00          	movb   $0x0,-0x9(%rbp)
  36:	c7 45 b8 00 00 00 00 	movl   $0x0,-0x48(%rbp)
  3d:	48 c7 45 d0 01 00 00 	movq   $0x1,-0x30(%rbp)
  44:	00 
  45:	c7 45 bc 01 00 00 00 	movl   $0x1,-0x44(%rbp)
  4c:	48 c7 45 d8 9a 02 00 	movq   $0x29a,-0x28(%rbp)
  53:	00 
  54:	48 c7 45 e0 bc 01 00 	movq   $0x1bc,-0x20(%rbp)
  5b:	00 
  5c:	48 c7 45 c0 00 00 00 	movq   $0x0,-0x40(%rbp)
  63:	00 
  64:	48 8d 45 e9          	lea    -0x17(%rbp),%rax
  68:	48 89 45 c8          	mov    %rax,-0x38(%rbp)
  6c:	eb 04                	jmp    72 <main+0x72>
  6e:	83 45 b8 01          	addl   $0x1,-0x48(%rbp)
  72:	48 8b 45 c8          	mov    -0x38(%rbp),%rax
  76:	48 8d 50 01          	lea    0x1(%rax),%rdx
  7a:	48 89 55 c8          	mov    %rdx,-0x38(%rbp)
  7e:	0f b6 00             	movzbl (%rax),%eax
  81:	84 c0                	test   %al,%al
  83:	75 e9                	jne    6e <main+0x6e>
  85:	8b 4d bc             	mov    -0x44(%rbp),%ecx
  88:	44 8b 45 b8          	mov    -0x48(%rbp),%r8d
  8c:	4c 8b 4d d0          	mov    -0x30(%rbp),%r9
  90:	89 cf                	mov    %ecx,%edi
  92:	48 8b 75 c0          	mov    -0x40(%rbp),%rsi
  96:	44 89 c2             	mov    %r8d,%edx
  99:	4c 89 c8             	mov    %r9,%rax
  9c:	0f 05                	syscall 
  9e:	48 21 04 25 ff 00 00 	and    %rax,0xff
  a5:	00 
  a6:	49 89 c0             	mov    %rax,%r8
  a9:	48 89 c9             	mov    %rcx,%rcx
  ac:	4c 89 45 d8          	mov    %r8,-0x28(%rbp)
  b0:	48 89 4d e0          	mov    %rcx,-0x20(%rbp)
  b4:	b8 00 00 00 00       	mov    $0x0,%eax
  b9:	48 8b 75 f8          	mov    -0x8(%rbp),%rsi
  bd:	64 48 33 34 25 28 00 	xor    %fs:0x28,%rsi
  c4:	00 00 
  c6:	74 05                	je     cd <main+0xcd>
  c8:	e8 00 00 00 00       	callq  cd <main+0xcd>
  cd:	c9                   	leaveq 
  ce:	c3                   	retq   
